target datalayout = "e-m:e-p270:32:32-p271:32:32-p272:64:64-i64:64-i128:128-f80:128-n8:16:32:64-S128"
target triple = "x86_64-pc-linux-gnu"

%struct.ct_test_fixture = type { ptr, i64, ptr, ptr, ptr, ptr, i32, i32, ptr, i64, ptr, ptr, ptr, i32 }

@.str.16 = private unnamed_addr constant [26 x i8] c"../openssl/test/ct_test.c\00", align 1
@.str.23 = private unnamed_addr constant [2 x i8] c"0\00", align 1
@.str.41 = private unnamed_addr constant [36 x i8] c"SCT_LIST_validate(scts, policy_ctx)\00", align 1
@.str.42 = private unnamed_addr constant [16 x i8] c"valid_sct_count\00", align 1
@.str.43 = private unnamed_addr constant [34 x i8] c"fixture->expected_valid_sct_count\00", align 1
@.str.44 = private unnamed_addr constant [35 x i8] c"%d SCTs failed, %d SCTs unverified\00", align 1

; Function Attrs: inlinehint nounwind uwtable
define internal ptr @ossl_check_const_SCT_sk_type(ptr noundef %0) #4 {
  %2 = alloca ptr, align 8
  store ptr %0, ptr %2, align 8, !tbaa !40
  %3 = load ptr, ptr %2, align 8, !tbaa !40
  ret ptr %3
}

; Function Attrs: nounwind uwtable
define internal i32 @assert_validity(ptr noundef %0, ptr noundef %1, ptr noundef %2) #0 {
  %4 = alloca i32, align 4
  %5 = alloca ptr, align 8
  %6 = alloca ptr, align 8
  %7 = alloca ptr, align 8
  %8 = alloca i32, align 4
  %9 = alloca i32, align 4
  %10 = alloca i32, align 4
  %11 = alloca i32, align 4
  %12 = alloca ptr, align 8
  %13 = alloca i32, align 4
  store ptr %0, ptr %5, align 8, !tbaa !9
  store ptr %1, ptr %6, align 8, !tbaa !40
  store ptr %2, ptr %7, align 8, !tbaa !32
  call void @llvm.lifetime.start.p0(i64 4, ptr %8) #9
  store i32 0, ptr %8, align 4, !tbaa !11
  call void @llvm.lifetime.start.p0(i64 4, ptr %9) #9
  store i32 0, ptr %9, align 4, !tbaa !11
  call void @llvm.lifetime.start.p0(i64 4, ptr %10) #9
  %14 = load ptr, ptr %6, align 8, !tbaa !40
  %15 = load ptr, ptr %7, align 8, !tbaa !32
  %16 = call i32 @SCT_LIST_validate(ptr noundef %14, ptr noundef %15)
  %17 = call i32 @test_int_ge(ptr noundef @.str.16, i32 noundef 190, ptr noundef @.str.41, ptr noundef @.str.23, i32 noundef %16, i32 noundef 0)
  %18 = icmp ne i32 %17, 0
  br i1 %18, label %20, label %19

19:                                               ; preds = %3
  store i32 0, ptr %4, align 4
  store i32 1, ptr %11, align 4
  br label %63

20:                                               ; preds = %3
  store i32 0, ptr %10, align 4, !tbaa !11
  br label %21

21:                                               ; preds = %42, %20
  %22 = load i32, ptr %10, align 4, !tbaa !11
  %23 = load ptr, ptr %6, align 8, !tbaa !40
  %24 = call ptr @ossl_check_const_SCT_sk_type(ptr noundef %23)
  %25 = call i32 @OPENSSL_sk_num(ptr noundef %24)
  %26 = icmp slt i32 %22, %25
  br i1 %26, label %27, label %45

27:                                               ; preds = %21
  call void @llvm.lifetime.start.p0(i64 8, ptr %12) #9
  %28 = load ptr, ptr %6, align 8, !tbaa !40
  %29 = call ptr @ossl_check_const_SCT_sk_type(ptr noundef %28)
  %30 = load i32, ptr %10, align 4, !tbaa !11
  %31 = call ptr @OPENSSL_sk_value(ptr noundef %29, i32 noundef %30)
  store ptr %31, ptr %12, align 8, !tbaa !29
  %32 = load ptr, ptr %12, align 8, !tbaa !29
  %33 = call i32 @SCT_get_validation_status(ptr noundef %32)
  switch i32 %33, label %41 [
    i32 2, label %34
    i32 3, label %37
    i32 0, label %40
    i32 1, label %40
    i32 4, label %40
    i32 5, label %40
  ]

34:                                               ; preds = %27
  %35 = load i32, ptr %9, align 4, !tbaa !11
  %36 = add nsw i32 %35, 1
  store i32 %36, ptr %9, align 4, !tbaa !11
  br label %41

37:                                               ; preds = %27
  %38 = load i32, ptr %8, align 4, !tbaa !11
  %39 = add nsw i32 %38, 1
  store i32 %39, ptr %8, align 4, !tbaa !11
  br label %41

40:                                               ; preds = %27, %27, %27, %27
  br label %41

41:                                               ; preds = %27, %40, %37, %34
  call void @llvm.lifetime.end.p0(i64 8, ptr %12) #9
  br label %42

42:                                               ; preds = %41
  %43 = load i32, ptr %10, align 4, !tbaa !11
  %44 = add nsw i32 %43, 1
  store i32 %44, ptr %10, align 4, !tbaa !11
  br label %21, !llvm.loop !48

45:                                               ; preds = %21
  %46 = load i32, ptr %9, align 4, !tbaa !11
  %47 = load ptr, ptr %5, align 8, !tbaa !9
  %48 = getelementptr inbounds nuw %struct.ct_test_fixture, ptr %47, i32 0, i32 7
  %49 = load i32, ptr %48, align 4, !tbaa !23
  %50 = call i32 @test_int_eq(ptr noundef @.str.16, i32 noundef 212, ptr noundef @.str.42, ptr noundef @.str.43, i32 noundef %46, i32 noundef %49)
  %51 = icmp ne i32 %50, 0
  br i1 %51, label %62, label %52

52:                                               ; preds = %45
  call void @llvm.lifetime.start.p0(i64 4, ptr %13) #9
  %53 = load ptr, ptr %6, align 8, !tbaa !40
  %54 = call ptr @ossl_check_const_SCT_sk_type(ptr noundef %53)
  %55 = call i32 @OPENSSL_sk_num(ptr noundef %54)
  %56 = load i32, ptr %8, align 4, !tbaa !11
  %57 = sub nsw i32 %55, %56
  %58 = load i32, ptr %9, align 4, !tbaa !11
  %59 = sub nsw i32 %57, %58
  store i32 %59, ptr %13, align 4, !tbaa !11
  %60 = load i32, ptr %8, align 4, !tbaa !11
  %61 = load i32, ptr %13, align 4, !tbaa !11
  call void (ptr, i32, ptr, ...) @test_info(ptr noundef @.str.16, i32 noundef 217, ptr noundef @.str.44, i32 noundef %60, i32 noundef %61)
  store i32 0, ptr %4, align 4
  store i32 1, ptr %11, align 4
  call void @llvm.lifetime.end.p0(i64 4, ptr %13) #9
  br label %63

62:                                               ; preds = %45
  store i32 1, ptr %4, align 4
  store i32 1, ptr %11, align 4
  br label %63

63:                                               ; preds = %62, %52, %19
  call void @llvm.lifetime.end.p0(i64 4, ptr %10) #9
  call void @llvm.lifetime.end.p0(i64 4, ptr %9) #9
  call void @llvm.lifetime.end.p0(i64 4, ptr %8) #9
  %64 = load i32, ptr %4, align 4
  ret i32 %64
}