; Function Attrs: nounwind uwtable
define internal fastcc range(i32 0, 2) i32 @assert_validity(ptr noundef nonnull readonly captures(none) %0, ptr noundef %1, ptr noundef %2) unnamed_addr #0 {
  %4 = tail call i32 @SCT_LIST_validate(ptr noundef %1, ptr noundef %2) #8
  %5 = tail call i32 @test_int_ge(ptr noundef nonnull @.str.16, i32 noundef 190, ptr noundef nonnull @.str.41, ptr noundef nonnull @.str.23, i32 noundef %4, i32 noundef 0) #8
  %.not = icmp eq i32 %5, 0
  br i1 %.not, label %25, label %.preheader

.preheader:                                       ; preds = %3
  %6 = tail call i32 @OPENSSL_sk_num(ptr noundef %1) #8
  %7 = icmp sgt i32 %6, 0
  br i1 %7, label %.lr.ph, label %._crit_edge

.lr.ph:                                           ; preds = %.preheader, %14
  %.01724 = phi i32 [ %.1, %14 ], [ 0, %.preheader ]
  %.01823 = phi i32 [ %15, %14 ], [ 0, %.preheader ]
  %.01922 = phi i32 [ %.120, %14 ], [ 0, %.preheader ]
  %8 = tail call ptr @OPENSSL_sk_value(ptr noundef %1, i32 noundef %.01823) #8
  %9 = tail call i32 @SCT_get_validation_status(ptr noundef %8) #8
  switch i32 %9, label %14 [
    i32 2, label %10
    i32 3, label %12
  ]

10:                                               ; preds = %.lr.ph
  %11 = add nsw i32 %.01922, 1
  br label %14

12:                                               ; preds = %.lr.ph
  %13 = add nsw i32 %.01724, 1
  br label %14

14:                                               ; preds = %12, %10, %.lr.ph
  %.120 = phi i32 [ %.01922, %.lr.ph ], [ %.01922, %12 ], [ %11, %10 ]
  %.1 = phi i32 [ %.01724, %.lr.ph ], [ %13, %12 ], [ %.01724, %10 ]
  %15 = add nuw nsw i32 %.01823, 1
  %16 = tail call i32 @OPENSSL_sk_num(ptr noundef %1) #8
  %17 = icmp slt i32 %15, %16
  br i1 %17, label %.lr.ph, label %._crit_edge, !llvm.loop !34

._crit_edge:                                      ; preds = %14, %.preheader
  %.019.lcssa = phi i32 [ 0, %.preheader ], [ %.120, %14 ]
  %.017.lcssa = phi i32 [ 0, %.preheader ], [ %.1, %14 ]
  %18 = getelementptr inbounds nuw i8, ptr %0, i64 52
  %19 = load i32, ptr %18, align 4, !tbaa !22
  %20 = tail call i32 @test_int_eq(ptr noundef nonnull @.str.16, i32 noundef 212, ptr noundef nonnull @.str.42, ptr noundef nonnull @.str.43, i32 noundef %.019.lcssa, i32 noundef %19) #8
  %.not21 = icmp eq i32 %20, 0
  br i1 %.not21, label %21, label %25

21:                                               ; preds = %._crit_edge
  %22 = tail call i32 @OPENSSL_sk_num(ptr noundef %1) #8
  %23 = add i32 %.017.lcssa, %.019.lcssa
  %24 = sub i32 %22, %23
  tail call void (ptr, i32, ptr, ...) @test_info(ptr noundef nonnull @.str.16, i32 noundef 217, ptr noundef nonnull @.str.44, i32 noundef %.017.lcssa, i32 noundef %24) #8
  br label %25

25:                                               ; preds = %._crit_edge, %3, %21
  %.0 = phi i32 [ 0, %21 ], [ 0, %3 ], [ 1, %._crit_edge ]
  ret i32 %.0
}